; Function Attrs: nounwind uwtable
define internal noundef ptr @function_setvectorcall(ptr readnone captures(none) %0, ptr noundef %1) #0 {
  %3 = getelementptr i8, ptr %1, i64 8
  %.val = load ptr, ptr %3, align 8, !tbaa !3
  %.not = icmp eq ptr %.val, @PyFunction_Type
  br i1 %.not, label %6, label %4

4:                                                ; preds = %2
  %5 = load ptr, ptr @PyExc_TypeError, align 8, !tbaa !20
  tail call void @PyErr_SetString(ptr noundef %5, ptr noundef nonnull @.str.23) #5
  br label %7

6:                                                ; preds = %2
  tail call void @PyFunction_SetVectorcall(ptr noundef nonnull %1, ptr noundef nonnull @override_vectorcall) #5
  br label %7

7:                                                ; preds = %6, %4
  %.0 = phi ptr [ @_Py_NoneStruct, %6 ], [ null, %4 ]
  ret ptr %.0
}